target datalayout = "e-m:e-p270:32:32-p271:32:32-p272:64:64-i64:64-i128:128-f80:128-n8:16:32:64-S128"
target triple = "x86_64-pc-linux-gnu"

%struct.hid_device_info = type { ptr, i16, i16, ptr, i16, ptr, ptr, i16, i16, i32, ptr, i32, i32, i32, i32 }

; Function Attrs: nounwind uwtable
define hidden void @PLATFORM_hid_free_enumeration(ptr noundef %0) #0 {
  %2 = alloca ptr, align 8
  %3 = alloca ptr, align 8
  %4 = alloca ptr, align 8
  store ptr %0, ptr %2, align 8
  call void @llvm.lifetime.start.p0(i64 8, ptr %3) #10
  %5 = load ptr, ptr %2, align 8
  store ptr %5, ptr %3, align 8
  br label %6

6:                                                ; preds = %9, %1
  %7 = load ptr, ptr %3, align 8
  %8 = icmp ne ptr %7, null
  br i1 %8, label %9, label %27

9:                                                ; preds = %6
  call void @llvm.lifetime.start.p0(i64 8, ptr %4) #10
  %10 = load ptr, ptr %3, align 8
  %11 = getelementptr inbounds nuw %struct.hid_device_info, ptr %10, i32 0, i32 10
  %12 = load ptr, ptr %11, align 8
  store ptr %12, ptr %4, align 8
  %13 = load ptr, ptr %3, align 8
  %14 = getelementptr inbounds nuw %struct.hid_device_info, ptr %13, i32 0, i32 0
  %15 = load ptr, ptr %14, align 8
  call void @free(ptr noundef %15) #10
  %16 = load ptr, ptr %3, align 8
  %17 = getelementptr inbounds nuw %struct.hid_device_info, ptr %16, i32 0, i32 3
  %18 = load ptr, ptr %17, align 8
  call void @free(ptr noundef %18) #10
  %19 = load ptr, ptr %3, align 8
  %20 = getelementptr inbounds nuw %struct.hid_device_info, ptr %19, i32 0, i32 5
  %21 = load ptr, ptr %20, align 8
  call void @free(ptr noundef %21) #10
  %22 = load ptr, ptr %3, align 8
  %23 = getelementptr inbounds nuw %struct.hid_device_info, ptr %22, i32 0, i32 6
  %24 = load ptr, ptr %23, align 8
  call void @free(ptr noundef %24) #10
  %25 = load ptr, ptr %3, align 8
  call void @free(ptr noundef %25) #10
  %26 = load ptr, ptr %4, align 8
  store ptr %26, ptr %3, align 8
  call void @llvm.lifetime.end.p0(i64 8, ptr %4) #10
  br label %6, !llvm.loop !8

27:                                               ; preds = %6
  call void @llvm.lifetime.end.p0(i64 8, ptr %3) #10
  ret void
}