; Function Attrs: nounwind uwtable
define hidden void @PLATFORM_hid_free_enumeration(ptr noundef captures(address_is_null) %0) local_unnamed_addr #1 {
  %.not9 = icmp eq ptr %0, null
  br i1 %.not9, label %._crit_edge, label %.lr.ph

.lr.ph:                                           ; preds = %1, %.lr.ph
  %.010 = phi ptr [ %3, %.lr.ph ], [ %0, %1 ]
  %2 = getelementptr inbounds nuw i8, ptr %.010, i64 56
  %3 = load ptr, ptr %2, align 8
  %4 = load ptr, ptr %.010, align 8
  tail call void @free(ptr noundef %4) #22
  %5 = getelementptr inbounds nuw i8, ptr %.010, i64 16
  %6 = load ptr, ptr %5, align 8
  tail call void @free(ptr noundef %6) #22
  %7 = getelementptr inbounds nuw i8, ptr %.010, i64 32
  %8 = load ptr, ptr %7, align 8
  tail call void @free(ptr noundef %8) #22
  %9 = getelementptr inbounds nuw i8, ptr %.010, i64 40
  %10 = load ptr, ptr %9, align 8
  tail call void @free(ptr noundef %10) #22
  tail call void @free(ptr noundef nonnull %.010) #22
  %.not = icmp eq ptr %3, null
  br i1 %.not, label %._crit_edge, label %.lr.ph, !llvm.loop !8

._crit_edge:                                      ; preds = %.lr.ph, %1
  ret void
}